; Function Attrs: nounwind uwtable
define hidden i32 @drsuapi_dissect_struct_DsBindInfo52(ptr noundef %0, i32 noundef %1, ptr noundef %2, ptr noundef %3, ptr noundef %4, ptr noundef %5, i32 noundef %6, i32 %7) local_unnamed_addr #0 {
  %9 = getelementptr inbounds nuw i8, ptr %4, i64 28
  %10 = load i32, ptr %9, align 4
  %.not = icmp ne i32 %10, 0
  %11 = and i32 %1, 3
  %.not62 = icmp eq i32 %11, 0
  %or.cond = or i1 %.not62, %.not
  %12 = and i32 %1, -4
  %13 = add i32 %12, 4
  %.0 = select i1 %or.cond, i32 %1, i32 %13
  %.not63 = icmp eq ptr %3, null
  br i1 %.not63, label %18, label %14

14:                                               ; preds = %8
  %15 = tail call ptr @proto_tree_add_item(ptr noundef nonnull %3, i32 noundef %6, ptr noundef %0, i32 noundef %.0, i32 noundef -1, i32 noundef 0) #5
  %16 = load i32, ptr @ett_drsuapi_drsuapi_DsBindInfo52, align 4
  %17 = tail call ptr @proto_item_add_subtree(ptr noundef %15, i32 noundef %16) #5
  br label %18

18:                                               ; preds = %14, %8
  %.060 = phi ptr [ %15, %14 ], [ null, %8 ]
  %.059 = phi ptr [ %17, %14 ], [ null, %8 ]
  %19 = load i32, ptr @hf_drsuapi_drsuapi_DsBindInfo52_supported_extensions, align 4
  %20 = tail call i32 @drsuapi_dissect_bitmap_SupportedExtensions(ptr noundef %0, i32 noundef %.0, ptr noundef %2, ptr noundef %.059, ptr noundef nonnull %4, ptr noundef %5, i32 noundef %19, i32 poison)
  %21 = load i32, ptr @hf_drsuapi_drsuapi_DsBindInfo52_site_guid, align 4
  %22 = tail call i32 @dissect_ndr_uuid_t(ptr noundef %0, i32 noundef %20, ptr noundef %2, ptr noundef %.059, ptr noundef nonnull %4, ptr noundef %5, i32 noundef %21, ptr noundef null) #5
  %23 = load i32, ptr @hf_drsuapi_drsuapi_DsBindInfo52_pid, align 4
  %24 = tail call i32 @PIDL_dissect_uint32(ptr noundef %0, i32 noundef %22, ptr noundef %2, ptr noundef %.059, ptr noundef nonnull %4, ptr noundef %5, i32 noundef %23, i32 noundef 0) #5
  %25 = load i32, ptr @hf_drsuapi_drsuapi_DsBindInfo52_repl_epoch, align 4
  %26 = tail call i32 @PIDL_dissect_uint32(ptr noundef %0, i32 noundef %24, ptr noundef %2, ptr noundef %.059, ptr noundef nonnull %4, ptr noundef %5, i32 noundef %25, i32 noundef 0) #5
  %27 = load i32, ptr @hf_drsuapi_drsuapi_DsBindInfo52_supported_extensions_ext, align 4
  %28 = tail call i32 @drsuapi_dissect_bitmap_SupportedExtensionsExt(ptr noundef %0, i32 noundef %26, ptr noundef %2, ptr noundef %.059, ptr noundef nonnull %4, ptr noundef %5, i32 noundef %27, i32 poison)
  %29 = load i32, ptr @hf_drsuapi_drsuapi_DsBindInfo52_config_dn_guid, align 4
  %30 = tail call i32 @dissect_ndr_uuid_t(ptr noundef %0, i32 noundef %28, ptr noundef %2, ptr noundef %.059, ptr noundef nonnull %4, ptr noundef %5, i32 noundef %29, ptr noundef null) #5
  %31 = load i32, ptr @hf_drsuapi_drsuapi_DsBindInfo52_supported_capabilities_ext, align 4
  %32 = tail call i32 @drsuapi_dissect_bitmap_SupportedExtensionsExt(ptr noundef %0, i32 noundef %30, ptr noundef %2, ptr noundef %.059, ptr noundef nonnull %4, ptr noundef %5, i32 noundef %31, i32 poison)
  %33 = sub i32 %32, %.0
  tail call void @proto_item_set_len(ptr noundef %.060, i32 noundef %33) #5
  %34 = getelementptr inbounds nuw i8, ptr %4, i64 72
  %35 = load ptr, ptr %34, align 8
  %36 = getelementptr inbounds nuw i8, ptr %35, i64 96
  %37 = load i32, ptr %36, align 8
  %38 = and i32 %37, 1
  %.not64 = icmp eq i32 %38, 0
  br i1 %.not64, label %45, label %39

39:                                               ; preds = %18
  %40 = load i32, ptr %9, align 4
  %.not65 = icmp ne i32 %40, 0
  %41 = and i32 %32, 3
  %.not66 = icmp eq i32 %41, 0
  %or.cond67 = or i1 %.not66, %.not65
  br i1 %or.cond67, label %45, label %42

42:                                               ; preds = %39
  %43 = and i32 %32, -4
  %44 = add i32 %43, 4
  br label %45

45:                                               ; preds = %39, %42, %18
  %.1 = phi i32 [ %32, %39 ], [ %44, %42 ], [ %32, %18 ]
  ret i32 %.1
}